; ModuleID = '5/257.c'
source_filename = "5/257.c"
target datalayout = "e-m:e-p270:32:32-p271:32:32-p272:64:64-i64:64-f80:128-n8:16:32:64-S128"
target triple = "x86_64-pc-linux-gnu"

@.str = private unnamed_addr constant [4 x i8] c"%lf\00", align 1
@.str.1 = private unnamed_addr constant [6 x i8] c"%s %s\00", align 1
@.str.2 = private unnamed_addr constant [7 x i8] c"error\0A\00", align 1
@.str.3 = private unnamed_addr constant [4 x i8] c"yes\00", align 1
@.str.4 = private unnamed_addr constant [3 x i8] c"no\00", align 1

; Function Attrs: noinline nounwind uwtable
define dso_local i32 @main() #0 {
  %1 = alloca i32, align 4
  %2 = alloca [501 x i8], align 16
  %3 = alloca [501 x i8], align 16
  %4 = alloca double, align 8
  %5 = alloca i32, align 4
  %6 = alloca i32, align 4
  %7 = alloca i32, align 4
  %8 = alloca i32, align 4
  %9 = alloca i32, align 4
  %10 = alloca double, align 8
  store i32 0, i32* %1, align 4
  %11 = call i32 (i8*, ...) @__isoc99_scanf(i8* getelementptr inbounds ([4 x i8], [4 x i8]* @.str, i64 0, i64 0), double* %4)
  %12 = getelementptr inbounds [501 x i8], [501 x i8]* %2, i64 0, i64 0
  %13 = getelementptr inbounds [501 x i8], [501 x i8]* %3, i64 0, i64 0
  %14 = call i32 (i8*, ...) @__isoc99_scanf(i8* getelementptr inbounds ([6 x i8], [6 x i8]* @.str.1, i64 0, i64 0), i8* %12, i8* %13)
  store i32 0, i32* %8, align 4
  %15 = getelementptr inbounds [501 x i8], [501 x i8]* %2, i64 0, i64 0
  %16 = call i64 @strlen(i8* %15) #3
  %17 = trunc i64 %16 to i32
  store i32 %17, i32* %6, align 4
  %18 = getelementptr inbounds [501 x i8], [501 x i8]* %3, i64 0, i64 0
  %19 = call i64 @strlen(i8* %18) #3
  %20 = trunc i64 %19 to i32
  store i32 %20, i32* %7, align 4
  %21 = load i32, i32* %6, align 4
  %22 = load i32, i32* %7, align 4
  %23 = icmp ne i32 %21, %22
  br i1 %23, label %24, label %25

24:                                               ; preds = %0
  store i32 1, i32* %8, align 4
  br label %25

25:                                               ; preds = %24, %0
  store i32 0, i32* %5, align 4
  br label %26

26:                                               ; preds = %61, %25
  %27 = load i32, i32* %5, align 4
  %28 = load i32, i32* %6, align 4
  %29 = icmp slt i32 %27, %28
  br i1 %29, label %30, label %64

30:                                               ; preds = %26
  %31 = load i32, i32* %5, align 4
  %32 = sext i32 %31 to i64
  %33 = getelementptr inbounds [501 x i8], [501 x i8]* %2, i64 0, i64 %32
  %34 = load i8, i8* %33, align 1
  %35 = sext i8 %34 to i32
  %36 = icmp eq i32 %35, 65
  br i1 %36, label %58, label %37

37:                                               ; preds = %30
  %38 = load i32, i32* %5, align 4
  %39 = sext i32 %38 to i64
  %40 = getelementptr inbounds [501 x i8], [501 x i8]* %2, i64 0, i64 %39
  %41 = load i8, i8* %40, align 1
  %42 = sext i8 %41 to i32
  %43 = icmp eq i32 %42, 84
  br i1 %43, label %58, label %44

44:                                               ; preds = %37
  %45 = load i32, i32* %5, align 4
  %46 = sext i32 %45 to i64
  %47 = getelementptr inbounds [501 x i8], [501 x i8]* %2, i64 0, i64 %46
  %48 = load i8, i8* %47, align 1
  %49 = sext i8 %48 to i32
  %50 = icmp eq i32 %49, 67
  br i1 %50, label %58, label %51

51:                                               ; preds = %44
  %52 = load i32, i32* %5, align 4
  %53 = sext i32 %52 to i64
  %54 = getelementptr inbounds [501 x i8], [501 x i8]* %2, i64 0, i64 %53
  %55 = load i8, i8* %54, align 1
  %56 = sext i8 %55 to i32
  %57 = icmp eq i32 %56, 71
  br i1 %57, label %58, label %59

58:                                               ; preds = %51, %44, %37, %30
  br label %61

59:                                               ; preds = %51
  store i32 1, i32* %8, align 4
  br label %60

60:                                               ; preds = %59
  br label %61

61:                                               ; preds = %60, %58
  %62 = load i32, i32* %5, align 4
  %63 = add nsw i32 %62, 1
  store i32 %63, i32* %5, align 4
  br label %26

64:                                               ; preds = %26
  store i32 0, i32* %5, align 4
  br label %65

65:                                               ; preds = %100, %64
  %66 = load i32, i32* %5, align 4
  %67 = load i32, i32* %7, align 4
  %68 = icmp slt i32 %66, %67
  br i1 %68, label %69, label %103

69:                                               ; preds = %65
  %70 = load i32, i32* %5, align 4
  %71 = sext i32 %70 to i64
  %72 = getelementptr inbounds [501 x i8], [501 x i8]* %3, i64 0, i64 %71
  %73 = load i8, i8* %72, align 1
  %74 = sext i8 %73 to i32
  %75 = icmp eq i32 %74, 65
  br i1 %75, label %97, label %76

76:                                               ; preds = %69
  %77 = load i32, i32* %5, align 4
  %78 = sext i32 %77 to i64
  %79 = getelementptr inbounds [501 x i8], [501 x i8]* %3, i64 0, i64 %78
  %80 = load i8, i8* %79, align 1
  %81 = sext i8 %80 to i32
  %82 = icmp eq i32 %81, 84
  br i1 %82, label %97, label %83

83:                                               ; preds = %76
  %84 = load i32, i32* %5, align 4
  %85 = sext i32 %84 to i64
  %86 = getelementptr inbounds [501 x i8], [501 x i8]* %3, i64 0, i64 %85
  %87 = load i8, i8* %86, align 1
  %88 = sext i8 %87 to i32
  %89 = icmp eq i32 %88, 67
  br i1 %89, label %97, label %90

90:                                               ; preds = %83
  %91 = load i32, i32* %5, align 4
  %92 = sext i32 %91 to i64
  %93 = getelementptr inbounds [501 x i8], [501 x i8]* %3, i64 0, i64 %92
  %94 = load i8, i8* %93, align 1
  %95 = sext i8 %94 to i32
  %96 = icmp eq i32 %95, 71
  br i1 %96, label %97, label %98

97:                                               ; preds = %90, %83, %76, %69
  br label %100

98:                                               ; preds = %90
  store i32 1, i32* %8, align 4
  br label %99

99:                                               ; preds = %98
  br label %100

100:                                              ; preds = %99, %97
  %101 = load i32, i32* %5, align 4
  %102 = add nsw i32 %101, 1
  store i32 %102, i32* %5, align 4
  br label %65

103:                                              ; preds = %65
  %104 = load i32, i32* %8, align 4
  %105 = icmp eq i32 %104, 1
  br i1 %105, label %106, label %108

106:                                              ; preds = %103
  %107 = call i32 (i8*, ...) @printf(i8* getelementptr inbounds ([7 x i8], [7 x i8]* @.str.2, i64 0, i64 0))
  br label %149

108:                                              ; preds = %103
  store i32 0, i32* %9, align 4
  store i32 0, i32* %5, align 4
  br label %109

109:                                              ; preds = %131, %108
  %110 = load i32, i32* %5, align 4
  %111 = sext i32 %110 to i64
  %112 = getelementptr inbounds [501 x i8], [501 x i8]* %2, i64 0, i64 %111
  %113 = load i8, i8* %112, align 1
  %114 = icmp ne i8 %113, 0
  br i1 %114, label %115, label %134

115:                                              ; preds = %109
  %116 = load i32, i32* %5, align 4
  %117 = sext i32 %116 to i64
  %118 = getelementptr inbounds [501 x i8], [501 x i8]* %2, i64 0, i64 %117
  %119 = load i8, i8* %118, align 1
  %120 = sext i8 %119 to i32
  %121 = load i32, i32* %5, align 4
  %122 = sext i32 %121 to i64
  %123 = getelementptr inbounds [501 x i8], [501 x i8]* %3, i64 0, i64 %122
  %124 = load i8, i8* %123, align 1
  %125 = sext i8 %124 to i32
  %126 = icmp eq i32 %120, %125
  br i1 %126, label %127, label %130

127:                                              ; preds = %115
  %128 = load i32, i32* %9, align 4
  %129 = add nsw i32 %128, 1
  store i32 %129, i32* %9, align 4
  br label %130

130:                                              ; preds = %127, %115
  br label %131

131:                                              ; preds = %130
  %132 = load i32, i32* %5, align 4
  %133 = add nsw i32 %132, 1
  store i32 %133, i32* %5, align 4
  br label %109

134:                                              ; preds = %109
  %135 = load i32, i32* %9, align 4
  %136 = sitofp i32 %135 to double
  %137 = fmul double 1.000000e+00, %136
  %138 = load i32, i32* %6, align 4
  %139 = sitofp i32 %138 to double
  %140 = fdiv double %137, %139
  store double %140, double* %10, align 8
  %141 = load double, double* %10, align 8
  %142 = load double, double* %4, align 8
  %143 = fcmp ogt double %141, %142
  br i1 %143, label %144, label %146

144:                                              ; preds = %134
  %145 = call i32 (i8*, ...) @printf(i8* getelementptr inbounds ([4 x i8], [4 x i8]* @.str.3, i64 0, i64 0))
  br label %148

146:                                              ; preds = %134
  %147 = call i32 (i8*, ...) @printf(i8* getelementptr inbounds ([3 x i8], [3 x i8]* @.str.4, i64 0, i64 0))
  br label %148

148:                                              ; preds = %146, %144
  br label %149

149:                                              ; preds = %148, %106
  ret i32 0
}

declare dso_local i32 @__isoc99_scanf(i8*, ...) #1

; Function Attrs: nounwind readonly
declare dso_local i64 @strlen(i8*) #2

declare dso_local i32 @printf(i8*, ...) #1


!llvm.module.flags = !{!0}
!llvm.ident = !{!1}

!0 = !{i32 1, !"wchar_size", i32 4}
!1 = !{!"clang version 10.0.0-4ubuntu1 "}
